; Function Attrs: nounwind uwtable
define internal range(i32 -1, 1) i32 @H5FA__cache_hdr_free_icr(ptr noundef %0) #0 {
  %2 = load i8, ptr @H5FA_init_g, align 1, !tbaa !3, !range !7, !noundef !8
  %3 = trunc nuw i8 %2 to i1
  %4 = load i8, ptr @H5_libterm_g, align 1, !range !7
  %5 = trunc nuw i8 %4 to i1
  %6 = xor i1 %5, true
  %7 = select i1 %3, i1 true, i1 %6
  br i1 %7, label %8, label %15, !prof !9

8:                                                ; preds = %1
  %9 = tail call i32 @H5FA__hdr_dest(ptr noundef %0) #6
  %10 = icmp slt i32 %9, 0
  br i1 %10, label %11, label %15

11:                                               ; preds = %8
  %12 = load i64, ptr @H5E_FARRAY_g, align 8, !tbaa !15
  %13 = load i64, ptr @H5E_CANTFREE_g, align 8, !tbaa !15
  %14 = tail call i32 (ptr, ptr, i32, i64, i64, ptr, ...) @H5E_printf_stack(ptr noundef nonnull @.str.3, ptr noundef nonnull @__func__.H5FA__cache_hdr_free_icr, i32 noundef 509, i64 noundef %12, i64 noundef %13, ptr noundef nonnull @.str.15) #6
  br label %15

15:                                               ; preds = %11, %8, %1
  %.0 = phi i32 [ -1, %11 ], [ 0, %8 ], [ 0, %1 ]
  ret i32 %.0
}